
testcpp.elf:     file format elf32-littlearm


Disassembly of section .text:

00000000 <cfun0>:
cfun0():
D:\src\M2\Test\TestMCURoutine\native/code.c:12
#define r4 float
#define ptr void*

// function begins

void* cfun0(u1* args){
   0:	b5f7      	push	{r0, r1, r2, r4, r5, r6, r7, lr}
D:\src\M2\Test\TestMCURoutine\native/code.c:16
//args:
int argN=0;
 ptr arg0 = *(ptr*)&args[(argN++)*4];
int stack_0_ptr_arr_stride_lb = *(int*)&args[(argN++)*4];
   2:	e9d0 0c00 	ldrd	r0, ip, [r0]
D:\src\M2\Test\TestMCURoutine\native/code.c:95
IL_005d: stack_2_r4=(stack_2_i4); //IL_005d: conv.r8: s_3, pop1, push1
IL_005e: stack_1_r4=((stack_1_r4)*(stack_2_r4)); //IL_005e: mul: s_3, pop2, push1
IL_005f: stack_2_i4=(var1); //IL_005f: ldloc.1: s_2, pop0, push1
IL_0060: stack_2_r4=(stack_2_i4); //IL_0060: conv.r8: s_3, pop1, push1
IL_0061: stack_1_r4=((stack_1_r4)/(stack_2_r4)); //IL_0061: div: s_3, pop2, push1
IL_0062: stack_0_r4=((stack_0_r4)+(stack_1_r4)); //IL_0062: add: s_2, pop2, push1
   6:	eddf 4a2f 	vldr	s9, [pc, #188]	@ c4 <cfun0+0xc4>
D:\src\M2\Test\TestMCURoutine\native/code.c:83
IL_0051: stack_0_r4=((stack_0_r4)+(stack_1_r4)); //IL_0051: add: s_2, pop2, push1
   a:	eddf 3a2f 	vldr	s7, [pc, #188]	@ c8 <cfun0+0xc8>
D:\src\M2\Test\TestMCURoutine\native/code.c:66
IL_0035: var6=stack_0_i4; //IL_0035: stloc.s V_6: s_1, pop1, push0
   e:	2300      	movs	r3, #0
D:\src\M2\Test\TestMCURoutine\native/code.c:95
IL_0062: stack_0_r4=((stack_0_r4)+(stack_1_r4)); //IL_0062: add: s_2, pop2, push1
  10:	eebf 5a00 	vmov.f32	s10, #240	@ 0xbf800000 -1.0
D:\src\M2\Test\TestMCURoutine\native/code.c:173
IL_00fb: stack_3_i4=(var6); //IL_00fb: ldloc.s V_6: s_3, pop0, push1
IL_00fd: stack_4_i4=(8); //IL_00fd: ldc.i4.8: s_4, pop0, push1
IL_00fe: stack_3_i4=((stack_3_i4)%(stack_4_i4)); //IL_00fe: rem: s_5, pop2, push1
IL_00ff: stack_4_i4=(31); //IL_00ff: ldc.i4.s 31: s_4, pop0, push1
IL_0101: stack_3_i4=((stack_3_i4)&(stack_4_i4)); //IL_0101: and: s_5, pop2, push1
IL_0102: stack_2_i4=((stack_2_i4)<<(stack_3_i4)); //IL_0102: shl: s_4, pop2, push1
  14:	2701      	movs	r7, #1
D:\src\M2\Test\TestMCURoutine\native/code.c:79
IL_004d: stack_1_r4=((stack_1_r4)*(stack_2_r4)); //IL_004d: mul: s_3, pop2, push1
  16:	eeb0 4a08 	vmov.f32	s8, #8	@ 0x40400000  3.0
D:\src\M2\Test\TestMCURoutine\native/code.c:83
IL_0051: stack_0_r4=((stack_0_r4)+(stack_1_r4)); //IL_0051: add: s_2, pop2, push1
  1a:	eeb8 3a00 	vmov.f32	s6, #128	@ 0xc0000000 -2.0
D:\src\M2\Test\TestMCURoutine\native/code.c:90
IL_005d: stack_2_r4=(stack_2_i4); //IL_005d: conv.r8: s_3, pop1, push1
  1e:	ee07 3a90 	vmov	s15, r3
  22:	eef8 7ae7 	vcvt.f32.s32	s15, s15
D:\src\M2\Test\TestMCURoutine\native/code.c:170
IL_00fe: stack_3_i4=((stack_3_i4)%(stack_4_i4)); //IL_00fe: rem: s_5, pop2, push1
  26:	f003 0107 	and.w	r1, r3, #7
D:\src\M2\Test\TestMCURoutine\native/code.c:91
IL_005e: stack_1_r4=((stack_1_r4)*(stack_2_r4)); //IL_005e: mul: s_3, pop2, push1
  2a:	ee77 7aa7 	vadd.f32	s15, s15, s15
D:\src\M2\Test\TestMCURoutine\native/code.c:95
IL_0062: stack_0_r4=((stack_0_r4)+(stack_1_r4)); //IL_0062: add: s_2, pop2, push1
  2e:	eef0 5a45 	vmov.f32	s11, s10
D:\src\M2\Test\TestMCURoutine\native/code.c:159
IL_00ed: stack_1_i4=((stack_1_i4)/(stack_2_i4)); //IL_00ed: div: s_3, pop2, push1
  32:	10dd      	asrs	r5, r3, #3
D:\src\M2\Test\TestMCURoutine\native/code.c:173
IL_0102: stack_2_i4=((stack_2_i4)<<(stack_3_i4)); //IL_0102: shl: s_4, pop2, push1
  34:	fa07 f101 	lsl.w	r1, r7, r1
D:\src\M2\Test\TestMCURoutine\native/code.c:95
IL_0062: stack_0_r4=((stack_0_r4)+(stack_1_r4)); //IL_0062: add: s_2, pop2, push1
  38:	eee7 5aa4 	vfma.f32	s11, s15, s9
D:\src\M2\Test\TestMCURoutine\native/code.c:161
IL_00ef: stack_1_i4=((stack_1_i4)*(stack_2_i4)); //IL_00ef: mul: s_3, pop2, push1
  3c:	01ed      	lsls	r5, r5, #7
D:\src\M2\Test\TestMCURoutine\native/code.c:174
IL_0103: stack_2_u1=(stack_2_i4); //IL_0103: conv.u1: s_3, pop1, push1
  3e:	b2c9      	uxtb	r1, r1
D:\src\M2\Test\TestMCURoutine\native/code.c:70
IL_003e: var7=stack_0_i4; //IL_003e: stloc.s V_7: s_1, pop1, push0
  40:	2200      	movs	r2, #0
  42:	e00b      	b.n	5c <cfun0+0x5c>
D:\src\M2\Test\TestMCURoutine\native/code.c:154
IL_00e6: if (!(stack_0_u1)) goto IL_0108; //IL_00e6: brfalse.s IL_0108: s_1, pop1, push0
  44:	f5b4 7f7a 	cmp.w	r4, #1000	@ 0x3e8
  48:	d105      	bne.n	56 <cfun0+0x56>
D:\src\M2\Test\TestMCURoutine\native/code.c:163
IL_00f2: stack_1_i4=((stack_1_i4)+(stack_2_i4)); //IL_00f2: add: s_3, pop2, push1
  4a:	1954      	adds	r4, r2, r5
D:\src\M2\Test\TestMCURoutine\native/code.c:164
IL_00f3: stack_0_ptr=(( ((i1*)stack_0_ptr)+(stack_1_i4<<stack_0_ptr_arr_stride_lb) )); //IL_00f3: ldelema System.Byte: s_2, pop2, push1
  4c:	fa04 f40c 	lsl.w	r4, r4, ip
D:\src\M2\Test\TestMCURoutine\native/code.c:166
IL_00f9: stack_1_u1=(*(unsigned char*)(stack_1_ptr)); //IL_00f9: ldind.u1: s_2, pop1, push1
  50:	5d06      	ldrb	r6, [r0, r4]
D:\src\M2\Test\TestMCURoutine\native/code.c:175
IL_0104: stack_1_u1=((stack_1_u1)|(stack_2_u1)); //IL_0104: or: s_3, pop2, push1
  52:	430e      	orrs	r6, r1
D:\src\M2\Test\TestMCURoutine\native/code.c:177
IL_0105: stack_1_u1=(stack_1_u1); //IL_0105: conv.u1: s_2, pop1, push1
IL_0106: *(char*)(stack_0_ptr)=(stack_1_u1); //IL_0106: stind.i1: s_2, pop2, push0
  54:	5506      	strb	r6, [r0, r4]
D:\src\M2\Test\TestMCURoutine\native/code.c:182
IL_0107:
IL_0108:
IL_0109: stack_0_i4=(var7); //IL_0109: ldloc.s V_7: s_0, pop0, push1
IL_010b: stack_1_i4=(1); //IL_010b: ldc.i4.1: s_1, pop0, push1
IL_010c: stack_0_i4=((stack_0_i4)+(stack_1_i4)); //IL_010c: add: s_2, pop2, push1
  56:	3201      	adds	r2, #1
D:\src\M2\Test\TestMCURoutine\native/code.c:189
IL_010f: stack_0_i4=(var7); //IL_010f: ldloc.s V_7: s_0, pop0, push1
IL_0111: stack_1_i4=(var0); //IL_0111: ldloc.0: s_1, pop0, push1
IL_0112: stack_0_i4=((stack_0_i4)<(stack_1_i4)); //IL_0112: clt: s_2, pop2, push1
IL_0114: var17=stack_0_i4; //IL_0114: stloc.s V_17: s_1, pop1, push0
IL_0116: stack_0_u1=(var17); //IL_0116: ldloc.s V_17: s_0, pop0, push1
IL_0118: if (stack_0_u1) goto IL_0045; //IL_0118: brtrue IL_0045: s_1, pop1, push0
  58:	2a80      	cmp	r2, #128	@ 0x80
  5a:	d02d      	beq.n	b8 <cfun0+0xb8>
D:\src\M2\Test\TestMCURoutine\native/code.c:78
IL_004c: stack_2_r4=(stack_2_i4); //IL_004c: conv.r8: s_3, pop1, push1
  5c:	ee07 2a90 	vmov	s15, r2
  60:	eef8 7ae7 	vcvt.f32.s32	s15, s15
D:\src\M2\Test\TestMCURoutine\native/code.c:100
IL_0079: var11=stack_0_r4; //IL_0079: stloc.s V_11: s_1, pop1, push0
  64:	ed9f 7a19 	vldr	s14, [pc, #100]	@ cc <cfun0+0xcc>
D:\src\M2\Test\TestMCURoutine\native/code.c:79
IL_004d: stack_1_r4=((stack_1_r4)*(stack_2_r4)); //IL_004d: mul: s_3, pop2, push1
  68:	ee67 7a84 	vmul.f32	s15, s15, s8
D:\src\M2\Test\TestMCURoutine\native/code.c:83
IL_0051: stack_0_r4=((stack_0_r4)+(stack_1_r4)); //IL_0051: add: s_2, pop2, push1
  6c:	eef0 2a43 	vmov.f32	s5, s6
  70:	eee7 2aa3 	vfma.f32	s5, s15, s7
D:\src\M2\Test\TestMCURoutine\native/code.c:102
IL_007c: var12=stack_0_i4; //IL_007c: stloc.s V_12: s_1, pop1, push0
  74:	2400      	movs	r4, #0
D:\src\M2\Test\TestMCURoutine\native/code.c:98
IL_006e: var10=stack_0_r4; //IL_006e: stloc.s V_10: s_1, pop1, push0
  76:	eef0 7a47 	vmov.f32	s15, s14
D:\src\M2\Test\TestMCURoutine\native/code.c:134
IL_00bb: stack_0_r4=((stack_0_r4)*(stack_1_r4)); //IL_00bb: mul: s_2, pop2, push1
  7a:	ee67 6aa7 	vmul.f32	s13, s15, s15
D:\src\M2\Test\TestMCURoutine\native/code.c:137
IL_00c0: stack_1_r4=((stack_1_r4)*(stack_2_r4)); //IL_00c0: mul: s_3, pop2, push1
  7e:	ee27 6a07 	vmul.f32	s12, s14, s14
D:\src\M2\Test\TestMCURoutine\native/code.c:138
IL_00c1: stack_0_r4=((stack_0_r4)+(stack_1_r4)); //IL_00c1: add: s_2, pop2, push1
  82:	ee36 2a86 	vadd.f32	s4, s13, s12
D:\src\M2\Test\TestMCURoutine\native/code.c:140
IL_00cb: if ((unsigned char)(stack_0_r4)>=(unsigned char)(stack_1_r4)) goto IL_00d5; //IL_00cb: bge.un.s IL_00d5: s_2, pop2, push0
  86:	eebc 2ac2 	vcvt.u32.f32	s4, s4
  8a:	ed8d 2a01 	vstr	s4, [sp, #4]
  8e:	f89d 6004 	ldrb.w	r6, [sp, #4]
  92:	2e03      	cmp	r6, #3
  94:	d8d6      	bhi.n	44 <cfun0+0x44>
D:\src\M2\Test\TestMCURoutine\native/code.c:148
IL_00da: if (stack_0_u1) goto IL_0087; //IL_00da: brtrue.s IL_0087: s_1, pop1, push0
  96:	f5b4 7f7a 	cmp.w	r4, #1000	@ 0x3e8
  9a:	d0d6      	beq.n	4a <cfun0+0x4a>
D:\src\M2\Test\TestMCURoutine\native/code.c:119
IL_00a3: stack_0_r4=((stack_0_r4)*(stack_1_r4)); //IL_00a3: mul: s_2, pop2, push1
  9c:	ee77 7aa7 	vadd.f32	s15, s15, s15
D:\src\M2\Test\TestMCURoutine\native/code.c:113
IL_0092: stack_0_r4=((stack_0_r4)-(stack_1_r4)); //IL_0092: sub: s_2, pop2, push1
  a0:	ee76 6ac6 	vsub.f32	s13, s13, s12
D:\src\M2\Test\TestMCURoutine\native/code.c:123
IL_00a9: stack_0_r4=((stack_0_r4)+(stack_1_r4)); //IL_00a9: add: s_2, pop2, push1
  a4:	eeb0 6a65 	vmov.f32	s12, s11
  a8:	eea7 6a27 	vfma.f32	s12, s14, s15
D:\src\M2\Test\TestMCURoutine\native/code.c:129
IL_00b3: stack_0_i4=((stack_0_i4)+(stack_1_i4)); //IL_00b3: add: s_2, pop2, push1
  ac:	3401      	adds	r4, #1
D:\src\M2\Test\TestMCURoutine\native/code.c:126
IL_00ae: var10=stack_0_r4; //IL_00ae: stloc.s V_10: s_1, pop1, push0
  ae:	ee72 7aa6 	vadd.f32	s15, s5, s13
D:\src\M2\Test\TestMCURoutine\native/code.c:123
IL_00a9: stack_0_r4=((stack_0_r4)+(stack_1_r4)); //IL_00a9: add: s_2, pop2, push1
  b2:	eeb0 7a46 	vmov.f32	s14, s12
D:\src\M2\Test\TestMCURoutine\native/code.c:130
IL_00b4: var12=stack_0_i4; //IL_00b4: stloc.s V_12: s_1, pop1, push0
  b6:	e7e0      	b.n	7a <cfun0+0x7a>
D:\src\M2\Test\TestMCURoutine\native/code.c:193
IL_011d:
IL_011e: stack_0_i4=(var6); //IL_011e: ldloc.s V_6: s_0, pop0, push1
IL_0120: stack_1_i4=(1); //IL_0120: ldc.i4.1: s_1, pop0, push1
IL_0121: stack_0_i4=((stack_0_i4)+(stack_1_i4)); //IL_0121: add: s_2, pop2, push1
  b8:	3301      	adds	r3, #1
D:\src\M2\Test\TestMCURoutine\native/code.c:200
IL_0124: stack_0_i4=(var6); //IL_0124: ldloc.s V_6: s_0, pop0, push1
IL_0126: stack_1_i4=(var1); //IL_0126: ldloc.1: s_1, pop0, push1
IL_0127: stack_0_i4=((stack_0_i4)<(stack_1_i4)); //IL_0127: clt: s_2, pop2, push1
IL_0129: var18=stack_0_i4; //IL_0129: stloc.s V_18: s_1, pop1, push0
IL_012b: stack_0_u1=(var18); //IL_012b: ldloc.s V_18: s_0, pop0, push1
IL_012d: if (stack_0_u1) goto IL_003c; //IL_012d: brtrue IL_003c: s_1, pop1, push0
  ba:	2b40      	cmp	r3, #64	@ 0x40
  bc:	d1af      	bne.n	1e <cfun0+0x1e>
D:\src\M2\Test\TestMCURoutine\native/code.c:206
IL_0132: stack_0_ptr=(arg0); //IL_0132: ldarg.0: s_0, pop0, push1
IL_0133: var19=stack_0_ptr; //IL_0133: stloc.s V_19: s_1, pop1, push0
IL_0135: goto IL_0137; //IL_0135: br.s IL_0137: s_0, pop0, push0
IL_0137: stack_0_ptr=(var19); //IL_0137: ldloc.s V_19: s_0, pop0, push1
IL_0139: return stack_0_ptr; //IL_0139: ret: s_1, pop1, push0
}
  be:	b003      	add	sp, #12
  c0:	bdf0      	pop	{r4, r5, r6, r7, pc}
  c2:	bf00      	nop
  c4:	3c800000 	stccc	0, cr0, [r0], {0}
  c8:	3c000000 	stccc	0, cr0, [r0], {-0}
  cc:	00000000 	andeq	r0, r0, r0
